target datalayout = "e-m:e-p270:32:32-p271:32:32-p272:64:64-i64:64-i128:128-f80:128-n8:16:32:64-S128"
target triple = "x86_64-pc-linux-gnu"

@_ZL12TTlowestRank = internal global [8192 x i32] zeroinitializer, align 16

; Function Attrs: mustprogress nounwind uwtable
define void @_ZN11TransTableS12SetConstantsEv(ptr noundef nonnull align 8 dereferenceable(2396) %0) #5 align 2 {
  %2 = alloca ptr, align 8
  %3 = alloca i32, align 4
  %4 = alloca i32, align 4
  store ptr %0, ptr %2, align 8
  store i32 1, ptr %3, align 4
  store i32 15, ptr @_ZL12TTlowestRank, align 16
  store i32 1, ptr %4, align 4
  br label %5

5:                                                ; preds = %28, %1
  %6 = load i32, ptr %4, align 4
  %7 = icmp ult i32 %6, 8192
  br i1 %7, label %8, label %31

8:                                                ; preds = %5
  %9 = load i32, ptr %4, align 4
  %10 = load i32, ptr %3, align 4
  %11 = load i32, ptr %3, align 4
  %12 = add i32 %10, %11
  %13 = icmp uge i32 %9, %12
  br i1 %13, label %14, label %17

14:                                               ; preds = %8
  %15 = load i32, ptr %3, align 4
  %16 = shl i32 %15, 1
  store i32 %16, ptr %3, align 4
  br label %17

17:                                               ; preds = %14, %8
  %18 = load i32, ptr %4, align 4
  %19 = load i32, ptr %3, align 4
  %20 = xor i32 %18, %19
  %21 = zext i32 %20 to i64
  %22 = getelementptr inbounds [8192 x i32], ptr @_ZL12TTlowestRank, i64 0, i64 %21
  %23 = load i32, ptr %22, align 4
  %24 = sub nsw i32 %23, 1
  %25 = load i32, ptr %4, align 4
  %26 = zext i32 %25 to i64
  %27 = getelementptr inbounds [8192 x i32], ptr @_ZL12TTlowestRank, i64 0, i64 %26
  store i32 %24, ptr %27, align 4
  br label %28

28:                                               ; preds = %17
  %29 = load i32, ptr %4, align 4
  %30 = add i32 %29, 1
  store i32 %30, ptr %4, align 4
  br label %5, !llvm.loop !4

31:                                               ; preds = %5
  ret void
}