; Function Attrs: mustprogress nofree norecurse nosync nounwind memory(readwrite, argmem: none, inaccessiblemem: none) uwtable
define void @_ZN11TransTableS12SetConstantsEv(ptr nocapture noundef nonnull readnone align 8 dereferenceable(2396) %0) local_unnamed_addr #4 align 2 {
  store i32 15, ptr @_ZL12TTlowestRank, align 16
  br label %2

2:                                                ; preds = %1, %2
  %indvars.iv = phi i64 [ 1, %1 ], [ %indvars.iv.next, %2 ]
  %.0910 = phi i32 [ 1, %1 ], [ %spec.select, %2 ]
  %3 = shl i32 %.0910, 1
  %4 = zext i32 %3 to i64
  %.not = icmp ult i64 %indvars.iv, %4
  %spec.select = select i1 %.not, i32 %.0910, i32 %3
  %5 = trunc nuw nsw i64 %indvars.iv to i32
  %6 = xor i32 %spec.select, %5
  %7 = zext i32 %6 to i64
  %8 = getelementptr inbounds [8192 x i32], ptr @_ZL12TTlowestRank, i64 0, i64 %7
  %9 = load i32, ptr %8, align 4
  %10 = add nsw i32 %9, -1
  %11 = getelementptr inbounds [8192 x i32], ptr @_ZL12TTlowestRank, i64 0, i64 %indvars.iv
  store i32 %10, ptr %11, align 4
  %indvars.iv.next = add nuw nsw i64 %indvars.iv, 1
  %exitcond.not = icmp eq i64 %indvars.iv.next, 8192
  br i1 %exitcond.not, label %12, label %2, !llvm.loop !4

12:                                               ; preds = %2
  ret void
}